target datalayout = "e-m:e-p270:32:32-p271:32:32-p272:64:64-i64:64-i128:128-f80:128-n8:16:32:64-S128"
target triple = "x86_64-pc-linux-gnu"

%struct._packet_info = type { ptr, ptr, i32, i32, %struct.nstime_t, %struct.nstime_t, %struct.nstime_t, i8, ptr, ptr, ptr, ptr, %struct._address, %struct._address, %struct._address, %struct._address, %struct._address, %struct._address, i32, ptr, i8, [3 x i8], %struct.anon, i32, i32, i32, i32, ptr, i8, ptr, ptr, i16, i16, i32, i32, i16, i32, i32, ptr, ptr, ptr, i8, i8, i16, i16, i16, i32, i16, i16, ptr, ptr, ptr, ptr, ptr, i32, i32 }
%struct.nstime_t = type { i64, i32 }
%struct._address = type { i32, i32, ptr, ptr }
%struct.anon = type { i8, [3 x i8] }
%struct.ipmi_context_t = type { %struct.ipmi_header_t, i32, i32, i8, i8 }
%struct.ipmi_header_t = type { i8, i8, i8, i8, i8, i8, i8, i8, i8, i8, i8 }
%struct.ipmi_dissect_arg_t = type { i8, i8, i8 }

@ett_ipmi = internal global i32 0, align 4
@proto_kcs = internal global i32 0, align 4
@.str.162 = private unnamed_addr constant [5 x i8] c"HOST\00", align 1
@.str.163 = private unnamed_addr constant [4 x i8] c"BMC\00", align 1

; Function Attrs: alwaysinline nounwind
define internal ptr @memset.inline(ptr %0, i32 %1, i64 %2) #7 {
  %4 = alloca ptr, align 8
  %5 = alloca i32, align 4
  %6 = alloca i64, align 8
  store ptr %0, ptr %4, align 8
  store i32 %1, ptr %5, align 4
  store i64 %2, ptr %6, align 8
  %7 = load ptr, ptr %4, align 8
  %8 = load i32, ptr %5, align 4
  %9 = load i64, ptr %6, align 8
  %10 = load ptr, ptr %4, align 8
  %11 = call i64 @llvm.objectsize.i64.p0(ptr %10, i1 false, i1 true, i1 true)
  %12 = call ptr @__memset_chk(ptr noundef %7, i32 noundef %8, i64 noundef %9, i64 noundef %11) #10
  ret ptr %12
}

; Function Attrs: null_pointer_is_valid sspstrong uwtable
define internal i32 @dissect_kcs(ptr noundef %0, ptr noundef %1, ptr noundef %2, ptr noundef %3) #0 {
  %5 = alloca i32, align 4
  %6 = alloca ptr, align 8
  %7 = alloca ptr, align 8
  %8 = alloca ptr, align 8
  %9 = alloca ptr, align 8
  %10 = alloca ptr, align 8
  %11 = alloca %struct.ipmi_context_t, align 4
  %12 = alloca i32, align 4
  %13 = alloca i8, align 1
  %14 = alloca i32, align 4
  store ptr %0, ptr %6, align 8
  store ptr %1, ptr %7, align 8
  store ptr %2, ptr %8, align 8
  store ptr %3, ptr %9, align 8
  call void @llvm.lifetime.start.p0(i64 8, ptr %10) #10
  %15 = load ptr, ptr %9, align 8
  store ptr %15, ptr %10, align 8
  call void @llvm.lifetime.start.p0(i64 24, ptr %11) #10
  call void @llvm.lifetime.start.p0(i64 4, ptr %12) #10
  %16 = load ptr, ptr %6, align 8
  %17 = call i32 @tvb_captured_length(ptr noundef %16)
  store i32 %17, ptr %12, align 4
  call void @llvm.lifetime.start.p0(i64 1, ptr %13) #10
  %18 = load i32, ptr %12, align 4
  %19 = icmp ult i32 %18, 2
  br i1 %19, label %20, label %21

20:                                               ; preds = %4
  store i32 0, ptr %5, align 4
  store i32 1, ptr %14, align 4
  br label %125

21:                                               ; preds = %4
  %22 = call ptr @memset.inline(ptr noundef %11, i32 noundef 0, i64 noundef 24) #10
  %23 = load ptr, ptr %6, align 8
  %24 = call zeroext i8 @tvb_get_uint8(ptr noundef %23, i32 noundef 0)
  store i8 %24, ptr %13, align 1
  %25 = load i8, ptr %13, align 1
  %26 = zext i8 %25 to i32
  %27 = ashr i32 %26, 2
  %28 = trunc i32 %27 to i8
  %29 = getelementptr inbounds nuw %struct.ipmi_context_t, ptr %11, i32 0, i32 0
  %30 = getelementptr inbounds nuw %struct.ipmi_header_t, ptr %29, i32 0, i32 6
  store i8 %28, ptr %30, align 2
  %31 = load i8, ptr %13, align 1
  %32 = zext i8 %31 to i32
  %33 = and i32 %32, 3
  %34 = trunc i32 %33 to i8
  %35 = getelementptr inbounds nuw %struct.ipmi_context_t, ptr %11, i32 0, i32 0
  %36 = getelementptr inbounds nuw %struct.ipmi_header_t, ptr %35, i32 0, i32 8
  store i8 %34, ptr %36, align 4
  %37 = load i8, ptr %13, align 1
  %38 = zext i8 %37 to i32
  %39 = and i32 %38, 3
  %40 = trunc i32 %39 to i8
  %41 = getelementptr inbounds nuw %struct.ipmi_context_t, ptr %11, i32 0, i32 0
  %42 = getelementptr inbounds nuw %struct.ipmi_header_t, ptr %41, i32 0, i32 5
  store i8 %40, ptr %42, align 1
  %43 = load ptr, ptr %6, align 8
  %44 = call zeroext i8 @tvb_get_uint8(ptr noundef %43, i32 noundef 1)
  %45 = getelementptr inbounds nuw %struct.ipmi_context_t, ptr %11, i32 0, i32 0
  %46 = getelementptr inbounds nuw %struct.ipmi_header_t, ptr %45, i32 0, i32 10
  store i8 %44, ptr %46, align 2
  %47 = getelementptr inbounds nuw %struct.ipmi_context_t, ptr %11, i32 0, i32 2
  store i32 224, ptr %47, align 4
  %48 = getelementptr inbounds nuw %struct.ipmi_context_t, ptr %11, i32 0, i32 1
  store i32 2, ptr %48, align 4
  %49 = load ptr, ptr %10, align 8
  %50 = icmp ne ptr %49, null
  br i1 %50, label %51, label %56

51:                                               ; preds = %21
  %52 = load ptr, ptr %10, align 8
  %53 = getelementptr inbounds nuw %struct.ipmi_dissect_arg_t, ptr %52, i32 0, i32 0
  %54 = load i8, ptr %53, align 1
  %55 = zext i8 %54 to i32
  br label %57

56:                                               ; preds = %21
  br label %57

57:                                               ; preds = %56, %51
  %58 = phi i32 [ %55, %51 ], [ 0, %56 ]
  %59 = trunc i32 %58 to i8
  %60 = getelementptr inbounds nuw %struct.ipmi_context_t, ptr %11, i32 0, i32 0
  %61 = getelementptr inbounds nuw %struct.ipmi_header_t, ptr %60, i32 0, i32 0
  store i8 %59, ptr %61, align 4
  %62 = load ptr, ptr %10, align 8
  %63 = icmp ne ptr %62, null
  br i1 %63, label %64, label %69

64:                                               ; preds = %57
  %65 = load ptr, ptr %10, align 8
  %66 = getelementptr inbounds nuw %struct.ipmi_dissect_arg_t, ptr %65, i32 0, i32 1
  %67 = load i8, ptr %66, align 1
  %68 = zext i8 %67 to i32
  br label %70

69:                                               ; preds = %57
  br label %70

70:                                               ; preds = %69, %64
  %71 = phi i32 [ %68, %64 ], [ 0, %69 ]
  %72 = trunc i32 %71 to i8
  %73 = getelementptr inbounds nuw %struct.ipmi_context_t, ptr %11, i32 0, i32 0
  %74 = getelementptr inbounds nuw %struct.ipmi_header_t, ptr %73, i32 0, i32 1
  store i8 %72, ptr %74, align 1
  %75 = load ptr, ptr %10, align 8
  %76 = icmp ne ptr %75, null
  br i1 %76, label %77, label %83

77:                                               ; preds = %70
  %78 = load ptr, ptr %10, align 8
  %79 = getelementptr inbounds nuw %struct.ipmi_dissect_arg_t, ptr %78, i32 0, i32 2
  %80 = load i8, ptr %79, align 1
  %81 = zext i8 %80 to i32
  %82 = ashr i32 %81, 7
  br label %89

83:                                               ; preds = %70
  %84 = getelementptr inbounds nuw %struct.ipmi_context_t, ptr %11, i32 0, i32 0
  %85 = getelementptr inbounds nuw %struct.ipmi_header_t, ptr %84, i32 0, i32 6
  %86 = load i8, ptr %85, align 2
  %87 = zext i8 %86 to i32
  %88 = and i32 %87, 1
  br label %89

89:                                               ; preds = %83, %77
  %90 = phi i32 [ %82, %77 ], [ %88, %83 ]
  %91 = trunc i32 %90 to i8
  %92 = getelementptr inbounds nuw %struct.ipmi_context_t, ptr %11, i32 0, i32 0
  %93 = getelementptr inbounds nuw %struct.ipmi_header_t, ptr %92, i32 0, i32 2
  store i8 %91, ptr %93, align 2
  %94 = getelementptr inbounds nuw %struct.ipmi_context_t, ptr %11, i32 0, i32 0
  %95 = getelementptr inbounds nuw %struct.ipmi_header_t, ptr %94, i32 0, i32 0
  %96 = load i8, ptr %95, align 4
  %97 = zext i8 %96 to i32
  %98 = icmp eq i32 %97, 0
  br i1 %98, label %99, label %118

99:                                               ; preds = %89
  %100 = load ptr, ptr %7, align 8
  %101 = getelementptr inbounds nuw %struct._packet_info, ptr %100, i32 0, i32 1
  %102 = load ptr, ptr %101, align 8
  %103 = getelementptr inbounds nuw %struct.ipmi_context_t, ptr %11, i32 0, i32 0
  %104 = getelementptr inbounds nuw %struct.ipmi_header_t, ptr %103, i32 0, i32 2
  %105 = load i8, ptr %104, align 2
  %106 = zext i8 %105 to i32
  %107 = icmp ne i32 %106, 0
  %108 = select i1 %107, ptr @.str.162, ptr @.str.163
  call void @col_set_str(ptr noundef %102, i32 noundef 37, ptr noundef %108)
  %109 = load ptr, ptr %7, align 8
  %110 = getelementptr inbounds nuw %struct._packet_info, ptr %109, i32 0, i32 1
  %111 = load ptr, ptr %110, align 8
  %112 = getelementptr inbounds nuw %struct.ipmi_context_t, ptr %11, i32 0, i32 0
  %113 = getelementptr inbounds nuw %struct.ipmi_header_t, ptr %112, i32 0, i32 2
  %114 = load i8, ptr %113, align 2
  %115 = zext i8 %114 to i32
  %116 = icmp ne i32 %115, 0
  %117 = select i1 %116, ptr @.str.163, ptr @.str.162
  call void @col_set_str(ptr noundef %111, i32 noundef 11, ptr noundef %117)
  br label %118

118:                                              ; preds = %99, %89
  %119 = load ptr, ptr %6, align 8
  %120 = load ptr, ptr %7, align 8
  %121 = load ptr, ptr %8, align 8
  %122 = load i32, ptr @proto_kcs, align 4
  %123 = load i32, ptr @ett_ipmi, align 4
  %124 = call i32 @dissect_ipmi_cmd(ptr noundef %119, ptr noundef %120, ptr noundef %121, i32 noundef %122, i32 noundef %123, ptr noundef %11)
  store i32 %124, ptr %5, align 4
  store i32 1, ptr %14, align 4
  br label %125

125:                                              ; preds = %118, %20
  call void @llvm.lifetime.end.p0(i64 1, ptr %13) #10
  call void @llvm.lifetime.end.p0(i64 4, ptr %12) #10
  call void @llvm.lifetime.end.p0(i64 24, ptr %11) #10
  call void @llvm.lifetime.end.p0(i64 8, ptr %10) #10
  %126 = load i32, ptr %5, align 4
  ret i32 %126
}