; Function Attrs: null_pointer_is_valid sspstrong uwtable
define internal i32 @dissect_kcs(ptr noundef %0, ptr noundef %1, ptr noundef %2, ptr noundef readonly captures(address_is_null) %3) #0 {
  %5 = alloca %struct.ipmi_context_t, align 4
  call void @llvm.lifetime.start.p0(i64 24, ptr nonnull %5) #15
  %6 = tail call i32 @tvb_captured_length(ptr noundef %0)
  %7 = icmp ult i32 %6, 2
  br i1 %7, label %44, label %8

8:                                                ; preds = %4
  call void @llvm.memset.p0.i64(ptr noundef nonnull align 4 dereferenceable(24) %5, i8 noundef 0, i64 noundef 24, i1 noundef false) #15
  %9 = tail call zeroext i8 @tvb_get_uint8(ptr noundef %0, i32 noundef 0)
  %10 = lshr i8 %9, 2
  %11 = getelementptr inbounds nuw i8, ptr %5, i64 6
  store i8 %10, ptr %11, align 2
  %12 = and i8 %9, 3
  %13 = getelementptr inbounds nuw i8, ptr %5, i64 8
  store i8 %12, ptr %13, align 4
  %14 = getelementptr inbounds nuw i8, ptr %5, i64 5
  store i8 %12, ptr %14, align 1
  %15 = tail call zeroext i8 @tvb_get_uint8(ptr noundef %0, i32 noundef 1)
  %16 = getelementptr inbounds nuw i8, ptr %5, i64 10
  store i8 %15, ptr %16, align 2
  %17 = getelementptr inbounds nuw i8, ptr %5, i64 16
  store i32 224, ptr %17, align 4
  %18 = getelementptr inbounds nuw i8, ptr %5, i64 12
  store i32 2, ptr %18, align 4
  %.not = icmp eq ptr %3, null
  br i1 %.not, label %.thread24, label %22

.thread24:                                        ; preds = %8
  store i8 0, ptr %5, align 4
  %19 = getelementptr inbounds nuw i8, ptr %5, i64 1
  store i8 0, ptr %19, align 1
  %20 = and i8 %10, 1
  %21 = getelementptr inbounds nuw i8, ptr %5, i64 2
  store i8 %20, ptr %21, align 2
  br label %32

22:                                               ; preds = %8
  %23 = load i8, ptr %3, align 1
  store i8 %23, ptr %5, align 4
  %24 = getelementptr inbounds nuw i8, ptr %3, i64 1
  %25 = load i8, ptr %24, align 1
  %26 = getelementptr inbounds nuw i8, ptr %5, i64 1
  store i8 %25, ptr %26, align 1
  %27 = getelementptr inbounds nuw i8, ptr %3, i64 2
  %28 = load i8, ptr %27, align 1
  %29 = lshr i8 %28, 7
  %30 = getelementptr inbounds nuw i8, ptr %5, i64 2
  store i8 %29, ptr %30, align 2
  %31 = icmp eq i8 %23, 0
  br i1 %31, label %32, label %40

32:                                               ; preds = %.thread24, %22
  %33 = phi ptr [ %21, %.thread24 ], [ %30, %22 ]
  %.in26 = phi i8 [ %20, %.thread24 ], [ %29, %22 ]
  %34 = getelementptr inbounds nuw i8, ptr %1, i64 8
  %35 = load ptr, ptr %34, align 8
  %.not20 = icmp eq i8 %.in26, 0
  %36 = select i1 %.not20, ptr @.str.163, ptr @.str.162
  tail call void @col_set_str(ptr noundef %35, i32 noundef 37, ptr noundef nonnull %36)
  %37 = load ptr, ptr %34, align 8
  %38 = load i8, ptr %33, align 2
  %.not21 = icmp eq i8 %38, 0
  %39 = select i1 %.not21, ptr @.str.162, ptr @.str.163
  tail call void @col_set_str(ptr noundef %37, i32 noundef 11, ptr noundef nonnull %39)
  br label %40

40:                                               ; preds = %32, %22
  %41 = load i32, ptr @proto_kcs, align 4
  %42 = load i32, ptr @ett_ipmi, align 4
  %43 = call fastcc i32 @dissect_ipmi_cmd(ptr noundef %0, ptr noundef %1, ptr noundef %2, i32 noundef %41, i32 noundef %42, ptr noundef nonnull %5)
  br label %44

44:                                               ; preds = %4, %40
  %.0 = phi i32 [ %43, %40 ], [ 0, %4 ]
  call void @llvm.lifetime.end.p0(i64 24, ptr nonnull %5) #15
  ret i32 %.0
}